; Function Attrs: mustprogress uwtable
define internal void @"_ZZN9grpc_core10NewClosureIZNS_12BatchBuilder6CancelENS1_6TargetEN4absl12lts_202308026StatusEE3$_0EEP12grpc_closureT_EN7Closure3RunEPvS5_"(ptr noundef %arg, ptr nocapture noundef readonly %error) #4 align 2 personality ptr @__gxx_personality_v0 {
entry:
  %f = getelementptr inbounds i8, ptr %arg, i64 32
  %0 = load i64, ptr %error, align 8
  %and.i.i.i = and i64 %0, 1
  %cmp.i.i.i = icmp eq i64 %and.i.i.i, 0
  br i1 %cmp.i.i.i, label %delete.end.critedge, label %if.then.i.i

if.then.i.i:                                      ; preds = %entry
  %sub.i.i.i = add nsw i64 %0, -1
  %1 = inttoptr i64 %sub.i.i.i to ptr
  %2 = atomicrmw add ptr %1, i32 1 monotonic, align 4
  %f.val = load ptr, ptr %f, align 8
  tail call void @_ZN9grpc_core12BatchBuilder5BatchD1Ev(ptr noundef nonnull align 8 dereferenceable(120) %f.val) #20
  tail call void @_ZdlPv(ptr noundef nonnull %f.val) #23
  invoke void @_ZN4absl12lts_202308026Status15UnrefNonInlinedEm(i64 noundef %0)
          to label %delete.end unwind label %terminate.lpad.i

terminate.lpad.i:                                 ; preds = %if.then.i.i
  %3 = landingpad { ptr, i32 }
          catch ptr null
  %4 = extractvalue { ptr, i32 } %3, 0
  tail call void @__clang_call_terminate(ptr %4) #22
  unreachable

delete.end.critedge:                              ; preds = %entry
  %f.val.c = load ptr, ptr %f, align 8
  tail call void @_ZN9grpc_core12BatchBuilder5BatchD1Ev(ptr noundef nonnull align 8 dereferenceable(120) %f.val.c) #20
  tail call void @_ZdlPv(ptr noundef nonnull %f.val.c) #23
  br label %delete.end

delete.end:                                       ; preds = %delete.end.critedge, %if.then.i.i
  tail call void @_ZdlPv(ptr noundef nonnull %arg) #23
  ret void
}